Certificate:
    Data:
        Version: 3 (0x2)
        Serial Number:
            d8:cb:e6:1f:b5:ae:00:ef
        Signature Algorithm: sha256WithRSAEncryption
        Issuer: C=US, ST=Pennsylvania, O=Linehaul Test Certificate, CN=linehaul.example.com
        Validity
            Not Before: Jan 17 19:50:32 2016 GMT
            Not After : Jan 16 19:50:32 2021 GMT
        Subject: C=US, ST=Pennsylvania, O=Linehaul Test Certificate, CN=linehaul.example.com
        Subject Public Key Info:
            Public Key Algorithm: rsaEncryption
            RSA Public Key: (4096 bit)
                Modulus (4096 bit):
                    00:ce:cf:84:b2:51:1a:a2:8e:0a:4b:53:3a:ea:e5:
                    83:ea:e1:dd:2d:ce:c0:a3:dd:ff:09:86:59:3e:66:
                    56:1e:d3:8a:12:92:a3:c8:cb:d6:5a:e3:b0:e1:3e:
                    4e:54:c5:d0:85:d4:8c:38:a0:fc:71:83:00:2d:15:
                    dc:d5:d5:cc:4a:a6:26:05:6f:03:7a:02:0e:86:03:
                    bd:63:5b:af:0e:2d:d3:0c:bb:7f:34:89:07:3e:7b:
                    5c:b0:7e:a7:e1:1f:95:ac:81:21:4e:b6:23:83:09:
                    9b:d4:48:5d:fc:bc:55:e9:86:45:6c:97:dd:d0:28:
                    70:7f:2c:1d:c0:44:f8:34:86:f8:40:db:b5:22:d1:
                    ec:66:03:b5:2d:f6:33:a3:3f:34:41:f1:a0:78:66:
                    d1:11:9f:91:8c:30:e2:08:7d:aa:19:a7:45:e5:89:
                    ef:4e:c6:1a:c6:ee:c2:14:99:4f:ad:26:90:3a:4c:
                    e5:3e:f9:39:0e:76:80:36:2c:ca:52:1b:6b:76:e5:
                    18:ce:fc:4c:0e:58:95:03:04:d3:5a:ab:ba:2e:ec:
                    2f:6c:0d:3c:53:c4:14:ed:38:1f:48:c4:fd:57:ea:
                    33:13:61:01:89:4a:9e:ac:c7:f7:53:39:18:af:a2:
                    a6:67:f5:23:a6:5c:2b:d8:50:22:c1:5b:0b:3a:e5:
                    3b:66:8f:60:f1:db:ff:b8:b7:b7:a2:8c:5d:4c:cd:
                    4d:da:e3:9c:c8:0e:45:4a:57:97:07:33:69:0f:9c:
                    20:d7:bc:f3:8e:07:f6:60:fb:de:90:44:40:85:22:
                    02:e9:76:da:06:da:b3:5d:e9:fa:af:cc:01:7e:41:
                    bc:9e:13:d0:48:ee:48:bf:ac:06:15:d8:a8:3e:fc:
                    55:35:51:64:db:28:27:2f:66:ee:3b:7a:2d:8e:84:
                    65:6d:6e:2d:b0:06:fd:d5:22:79:91:97:b2:46:63:
                    e4:a6:f0:34:10:c6:05:cd:53:3a:c8:10:2a:05:5e:
                    90:cf:dd:01:d5:75:d0:e2:3f:c7:5d:e9:23:af:3e:
                    1b:02:bf:55:fc:54:10:d9:39:fe:fa:ad:3a:ef:49:
                    90:f1:68:dd:9b:49:ff:b5:89:ae:10:18:24:e5:f5:
                    3e:c3:0d:75:13:e1:e1:0a:dc:80:15:34:80:bb:0f:
                    92:a2:b5:1c:75:27:9f:3b:08:91:7a:09:45:c2:22:
                    c4:a1:d5:94:8b:27:f6:0d:79:1e:7d:ff:6f:b9:48:
                    cc:b1:29:63:b4:fb:19:ed:96:c0:98:b0:31:e7:11:
                    ab:2e:b8:4c:26:57:60:de:19:37:fe:6d:6e:96:23:
                    82:ce:df:81:e1:e4:e1:ce:83:be:73:d1:93:f2:a7:
                    d2:86:f9
                Exponent: 65537 (0x10001)
        X509v3 extensions:
            X509v3 Subject Key Identifier: 
                C5:1E:C6:01:BC:33:B8:6F:44:C1:CB:A2:39:25:23:55:7B:DA:96:F6
            X509v3 Authority Key Identifier: 
                keyid:C5:1E:C6:01:BC:33:B8:6F:44:C1:CB:A2:39:25:23:55:7B:DA:96:F6
                DirName:/C=US/ST=Pennsylvania/O=Linehaul Test Certificate/CN=linehaul.example.com
                serial:D8:CB:E6:1F:B5:AE:00:EF

            X509v3 Basic Constraints: 
                CA:TRUE
    Signature Algorithm: sha256WithRSAEncryption
        8e:8f:ee:69:b4:83:2b:98:f4:6b:06:b3:9e:16:9a:59:e8:65:
        ac:dc:19:11:6a:65:ef:27:b1:3d:81:fc:95:33:2a:20:7e:98:
        42:f7:66:86:2d:16:2d:36:20:55:ed:97:b0:d8:59:c8:b2:16:
        96:ef:be:07:08:2c:55:21:f3:68:17:79:e6:d8:0d:2a:22:81:
        e7:2b:c2:6e:7d:b9:41:2a:66:b8:6d:f8:9b:e0:f3:50:15:52:
        e8:06:50:fd:45:58:6d:4f:9e:af:40:3b:d1:8b:4e:dc:45:22:
        f2:7e:db:44:28:e5:77:e9:d1:96:2d:44:23:cc:52:c5:da:f1:
        f2:af:17:44:c1:97:56:c1:4a:0d:7d:da:cf:6e:49:26:39:7b:
        0b:78:8b:b4:a5:4a:a0:f6:d5:7d:6b:da:97:9d:9c:2d:f5:87:
        2e:df:2c:82:22:81:a0:3a:fb:41:1f:3a:96:fe:dd:a9:24:40:
        2c:c9:1b:26:fc:c7:51:b0:ec:10:b1:62:1e:68:d7:98:86:ba:
        a7:44:62:e6:77:5e:d3:53:8c:52:7b:be:be:3d:00:d1:0c:55:
        0d:dc:e2:01:c5:50:3c:bb:6a:f3:bc:df:5c:09:13:db:3d:19:
        27:4d:62:00:61:6d:15:73:54:78:1d:8d:33:f0:ba:0f:81:23:
        64:c1:2f:20:79:0a:1b:57:6b:29:f1:fe:01:78:b5:2b:a3:5f:
        1c:3b:ee:f6:5d:a8:11:61:d4:e8:36:e6:27:92:19:5d:90:f1:
        42:db:36:76:a3:8b:85:57:af:cb:98:60:a3:02:0b:4b:b4:fc:
        27:a8:31:72:9f:fd:cf:db:d4:2b:39:85:8e:81:84:1b:ca:0e:
        22:00:71:9f:a8:39:5d:54:42:f8:68:06:15:50:40:dd:93:fd:
        f2:44:2a:c7:41:2b:2c:7d:bb:81:19:51:0f:1d:9a:54:68:03:
        0b:36:43:aa:4a:d3:6b:79:a3:ed:39:c3:ee:01:6a:9f:be:c0:
        fb:89:0d:b9:6e:49:90:0b:71:76:10:76:7b:cd:32:da:9f:81:
        fd:da:6e:08:2a:b1:4a:41:5c:91:f6:e7:9a:6b:68:66:fc:c9:
        ae:21:85:df:b0:95:41:75:42:dc:cb:47:00:c0:9c:9f:5c:90:
        79:12:d7:40:a3:74:5f:da:a2:dd:f1:49:50:0f:13:d1:fa:0a:
        58:2d:99:6e:c3:75:67:a9:b4:ba:1c:d4:aa:fb:8b:1a:61:2a:
        35:33:22:fd:59:59:75:72:20:0e:47:45:40:52:30:46:6e:ed:
        12:e2:e8:82:4d:33:03:79:bb:6b:13:85:88:c4:87:15:38:0d:
        28:66:f0:66:5f:5a:74:b3
-----BEGIN CERTIFICATE-----
MIIGHjCCBAagAwIBAgIJANjL5h+1rgDvMA0GCSqGSIb3DQEBCwUAMGcxCzAJBgNV
BAYTAlVTMRUwEwYDVQQIEwxQZW5uc3lsdmFuaWExIjAgBgNVBAoTGUxpbmVoYXVs
IFRlc3QgQ2VydGlmaWNhdGUxHTAbBgNVBAMTFGxpbmVoYXVsLmV4YW1wbGUuY29t
MB4XDTE2MDExNzE5NTAzMloXDTIxMDExNjE5NTAzMlowZzELMAkGA1UEBhMCVVMx
FTATBgNVBAgTDFBlbm5zeWx2YW5pYTEiMCAGA1UEChMZTGluZWhhdWwgVGVzdCBD
ZXJ0aWZpY2F0ZTEdMBsGA1UEAxMUbGluZWhhdWwuZXhhbXBsZS5jb20wggIiMA0G
CSqGSIb3DQEBAQUAA4ICDwAwggIKAoICAQDOz4SyURqijgpLUzrq5YPq4d0tzsCj
3f8Jhlk+ZlYe04oSkqPIy9Za47DhPk5UxdCF1Iw4oPxxgwAtFdzV1cxKpiYFbwN6
Ag6GA71jW68OLdMMu380iQc+e1ywfqfhH5WsgSFOtiODCZvUSF38vFXphkVsl93Q
KHB/LB3ARPg0hvhA27Ui0exmA7Ut9jOjPzRB8aB4ZtERn5GMMOIIfaoZp0Xlie9O
xhrG7sIUmU+tJpA6TOU++TkOdoA2LMpSG2t25RjO/EwOWJUDBNNaq7ou7C9sDTxT
xBTtOB9IxP1X6jMTYQGJSp6sx/dTORivoqZn9SOmXCvYUCLBWws65Ttmj2Dx2/+4
t7eijF1MzU3a45zIDkVKV5cHM2kPnCDXvPOOB/Zg+96QRECFIgLpdtoG2rNd6fqv
zAF+QbyeE9BI7ki/rAYV2Kg+/FU1UWTbKCcvZu47ei2OhGVtbi2wBv3VInmRl7JG
Y+Sm8DQQxgXNUzrIECoFXpDP3QHVddDiP8dd6SOvPhsCv1X8VBDZOf76rTrvSZDx
aN2bSf+1ia4QGCTl9T7DDXUT4eEK3IAVNIC7D5KitRx1J587CJF6CUXCIsSh1ZSL
J/YNeR59/2+5SMyxKWO0+xntlsCYsDHnEasuuEwmV2DeGTf+bW6WI4LO34Hh5OHO
g75z0ZPyp9KG+QIDAQABo4HMMIHJMB0GA1UdDgQWBBTFHsYBvDO4b0TBy6I5JSNV
e9qW9jCBmQYDVR0jBIGRMIGOgBTFHsYBvDO4b0TBy6I5JSNVe9qW9qFrpGkwZzEL
MAkGA1UEBhMCVVMxFTATBgNVBAgTDFBlbm5zeWx2YW5pYTEiMCAGA1UEChMZTGlu
ZWhhdWwgVGVzdCBDZXJ0aWZpY2F0ZTEdMBsGA1UEAxMUbGluZWhhdWwuZXhhbXBs
ZS5jb22CCQDYy+Yfta4A7zAMBgNVHRMEBTADAQH/MA0GCSqGSIb3DQEBCwUAA4IC
AQCOj+5ptIMrmPRrBrOeFppZ6GWs3BkRamXvJ7E9gfyVMyogfphC92aGLRYtNiBV
7Zew2FnIshaW774HCCxVIfNoF3nm2A0qIoHnK8JufblBKma4bfib4PNQFVLoBlD9
RVhtT56vQDvRi07cRSLyfttEKOV36dGWLUQjzFLF2vHyrxdEwZdWwUoNfdrPbkkm
OXsLeIu0pUqg9tV9a9qXnZwt9Ycu3yyCIoGgOvtBHzqW/t2pJEAsyRsm/MdRsOwQ
sWIeaNeYhrqnRGLmd17TU4xSe76+PQDRDFUN3OIBxVA8u2rzvN9cCRPbPRknTWIA
YW0Vc1R4HY0z8LoPgSNkwS8geQobV2sp8f4BeLUro18cO+72XagRYdToNuYnkhld
kPFC2zZ2o4uFV6/LmGCjAgtLtPwnqDFyn/3P29QrOYWOgYQbyg4iAHGfqDldVEL4
aAYVUEDdk/3yRCrHQSssfbuBGVEPHZpUaAMLNkOqStNreaPtOcPuAWqfvsD7iQ25
bkmQC3F2EHZ7zTLan4H92m4IKrFKQVyR9ueaa2hm/MmuIYXfsJVBdULcy0cAwJyf
XJB5EtdAo3Rf2qLd8UlQDxPR+gpYLZluw3VnqbS6HNSq+4saYSo1MyL9WVl1ciAO
R0VAUjBGbu0S4uiCTTMDebtrE4WIxIcVOA0oZvBmX1p0sw==
-----END CERTIFICATE-----
-----BEGIN RSA PRIVATE KEY-----
MIIJKAIBAAKCAgEAzs+EslEaoo4KS1M66uWD6uHdLc7Ao93/CYZZPmZWHtOKEpKj
yMvWWuOw4T5OVMXQhdSMOKD8cYMALRXc1dXMSqYmBW8DegIOhgO9Y1uvDi3TDLt/
NIkHPntcsH6n4R+VrIEhTrYjgwmb1Ehd/LxV6YZFbJfd0ChwfywdwET4NIb4QNu1
ItHsZgO1LfYzoz80QfGgeGbREZ+RjDDiCH2qGadF5YnvTsYaxu7CFJlPrSaQOkzl
Pvk5DnaANizKUhtrduUYzvxMDliVAwTTWqu6LuwvbA08U8QU7TgfSMT9V+ozE2EB
iUqerMf3UzkYr6KmZ/Ujplwr2FAiwVsLOuU7Zo9g8dv/uLe3ooxdTM1N2uOcyA5F
SleXBzNpD5wg17zzjgf2YPvekERAhSIC6XbaBtqzXen6r8wBfkG8nhPQSO5Iv6wG
FdioPvxVNVFk2ygnL2buO3otjoRlbW4tsAb91SJ5kZeyRmPkpvA0EMYFzVM6yBAq
BV6Qz90B1XXQ4j/HXekjrz4bAr9V/FQQ2Tn++q0670mQ8Wjdm0n/tYmuEBgk5fU+
ww11E+HhCtyAFTSAuw+SorUcdSefOwiReglFwiLEodWUiyf2DXkeff9vuUjMsSlj
tPsZ7ZbAmLAx5xGrLrhMJldg3hk3/m1uliOCzt+B4eThzoO+c9GT8qfShvkCAwEA
AQKCAgB3Rsx7o7c+5bkeNISYkYMB5v6Putz0JcdAERJLoO4unUbW62g3GQkqJoQP
hMXcsrJPXYT57C9ssGdbmW5ijgpjS2xGWf6hUapatLF4KprODLPadhEplZZt/Ow6
hvIALx09/sPdB8N3ggUz7AD5EQ5jvyMvPG+b7JblYeZOy/hzIxzvG0hfKr+zHpRS
S9sAXiWfmuI4TuRpy6RAPLlAuGlwnj774g/5WNx8u5uIEdwYO1OXrF3Tch3sL4BG
vpJ5xIK4ce1bA7xB0ekvcosLkluxUFsRcJjInyCKqIGykJqlJ9gJZzthmX3mnPYS
M63/LknXT1UeT66h9aX16rKRZ0BYHprLhaJGnnwfv/z6U/45wsEwEfFT6YYxLzB/
MoxKu9ScdxSDxmMARkeBVm20XG/zzez7tqUi+6ojy32OnjTO6PqwMRk/JXP/3KtO
7dkNhN7IwjSiQCXNIYowIkof30MPVwNjiF91Pbv8NMICMMIQ5UCx1l/ABCl10+Ky
02ocEuY07wygyqfumNasCobcAOueKO1y09HWrrrFILFy9S+A7okrUrVxtrD6c+in
LvIndi3korqUnaFbb3DsCV5GFLbwlq4O1wU08hbzneNRPiTwoys31oV0mKd5FsvK
XwNz2sLxV0HjW8ew0EkKFSDagQkzYQmPHb01p0wiNbSGWOYx4QKCAQEA9DaJMtEp
ONNciUyal6uxn2x3DiTphf3biOmkUvOj6ElbQVmStCM+G386sCnSyINDl/5pw96L
RwZP4azYoPbKS9MKMZ/b4sN6t5CSAFcE/9hWrkt2JT+UTUpfnWICS3Ful+LsTYq6
dnvh5LiFLrZxgyU77QuUAjT/fN4hrit3AoP9lcVppp1XLRZPhvxOR9ZYf7IiLFaz
7SpmOdPLjgP0EnEgGFSh0eU6VTVWnMZFENVqdsJ3LaSQMY+fNwrNKci++x7r0ORY
K2cSBrsDe0b7iXyY4Wtc9kcJlIcADBlbtEM68hCdjJ9aa5cllBp8phj7hfKiHr+N
nVL3mAlFuM/77QKCAQEA2MrX10rzWW7NvTEN/RAZhQaJMaPaiNf9nWa1iUc6hX6l
nkfGEL6YMf6kTqmsX5v3Tc8ZbdsO4a4mhXBFIcTbZZ2DAiGFYNDHIsKwqjLHqgGE
SMQeApXCW3eIWMCAmj8voGtPLmt0KQCCSWKMC+HpbJEXG9WJilmNScWfZJEQLaga
aGhdTTORGQiGSFcFe1MvztNYRiT/Q5V9Lx6Z16ujqyYLmNQn5W8Ize0mRAY4tbWr
+NEYeA2z1s8DR0pK1g25xFNwD6IEXfdeBtRY31V9qXN7oIJvP7vIkDR30/DBPBCR
fEc/SCQp4k75c8ifQRwm2388sLdCnfA1klCvohSNvQKCAQAcBLHC+cpP8bf5LKfD
5PfxAYG7RrLgI5rvX1byCW/xs5Dbs4ooTq7Oes9h7Lp5NM4pfw/lX//8uxWpH6qO
9SGKh4Dw5pVUs/a9XsHRdiplrA1t28yHQ38hSvojVV5MB4yXsnpH/zWbaGUnV6A4
Fsh5Mmlord5iTnBNhDK7B9OUn04Vw9t2OTEKRDgFlabpiQcIR4iyK5RjDm1CDzGY
bo2vG/mBsRwLt8/0fLUeMYU1BDc9vtvriajddsvehce6FoUKzKZjhf8zo5Sm3wfs
Od2cDYaAvk+hFc9ckgyIVtR1nw0BPrTEsHewRlwSXOOWLuGUoZzGCFYYCa/Maqvs
IziVAoIBAFlHJ54MyqyA2g9YnUcjEy9aIrOjo8KJGHNysb3n7Gy/XBsTubh5lRm5
oRaX/1mcVDrh17oK5VUBL/Hx6zZd6HAvbp05CsF1GRzyimh84wba+wwwX5925wRd
9HOASzW6YbWxm3klXT/par4n7D6UeVlxYs/en3avLGU+EkcLCluTB9UJbar2WoGx
pgMyexpvhpepJ4gzgj/l1xjJhFdx4sP/tfTpIcj1ce3EBOcsnLwQJdMg4O/HzNDg
jZwVNz5xhpgYOGTntt6vmTQ8zKCkh0x6N2ZBcOkRPyZLxTEty5YdyJwihygBZJJD
La2F6DebDVGFU4v+3FtIafdobPvVdQ0CggEBAMjYdfvVFnxynjlXkzlshCeYVM1z
FnT6TMyePOaVMKcZ/edTu9Hs+XsvAN98GzWqsVr37jahgQUpmOWDbxPY8z3EZDlz
le0040Ya5HztIhl2ZsuRh8W/CWuWHN/oauz/03JgAMCG+R+lViurz9/AM4xkV4m5
ZaMxZ2ZYZXEojDEhR57+agaxvvHHqXptxs5E9ZCZN5lfgQ+WRxD7Qdc32mnxTCSh
07sMda4Rg85QQvFfXhfE35dhaNrbJVhqtcIFKrASaRzvkMa1GLdIum0gSdDZvfVX
EZRxrGdgY0H1wSIZbCqWrWBHxGwJdqSsMpEG0c4d8XBf6fmRpLCn+M0DKAI=
-----END RSA PRIVATE KEY-----
